; ModuleID = '4/1037.c'
source_filename = "4/1037.c"
target datalayout = "e-m:e-p270:32:32-p271:32:32-p272:64:64-i64:64-f80:128-n8:16:32:64-S128"
target triple = "x86_64-pc-linux-gnu"

@.str = private unnamed_addr constant [5 x i8] c"%d%d\00", align 1
@.str.1 = private unnamed_addr constant [3 x i8] c"%d\00", align 1
@.str.2 = private unnamed_addr constant [4 x i8] c"%d\0A\00", align 1

; Function Attrs: noinline nounwind uwtable
define dso_local void @main() #0 {
  %1 = alloca i32, align 4
  %2 = alloca i32, align 4
  %3 = alloca i32, align 4
  %4 = alloca i32, align 4
  %5 = alloca i32, align 4
  %6 = alloca i32, align 4
  %7 = alloca [101 x [101 x i32]], align 16
  %8 = alloca i32*, align 8
  store i32 0, i32* %6, align 4
  %9 = bitcast [101 x [101 x i32]]* %7 to i8*
  call void @llvm.memset.p0i8.i64(i8* align 16 %9, i8 0, i64 40804, i1 false)
  %10 = call i32 (i8*, ...) @__isoc99_scanf(i8* getelementptr inbounds ([5 x i8], [5 x i8]* @.str, i64 0, i64 0), i32* %2, i32* %1)
  store i32 0, i32* %3, align 4
  br label %11

11:                                               ; preds = %32, %0
  %12 = load i32, i32* %3, align 4
  %13 = load i32, i32* %2, align 4
  %14 = icmp slt i32 %12, %13
  br i1 %14, label %15, label %35

15:                                               ; preds = %11
  store i32 0, i32* %4, align 4
  br label %16

16:                                               ; preds = %28, %15
  %17 = load i32, i32* %4, align 4
  %18 = load i32, i32* %1, align 4
  %19 = icmp slt i32 %17, %18
  br i1 %19, label %20, label %31

20:                                               ; preds = %16
  %21 = load i32, i32* %3, align 4
  %22 = sext i32 %21 to i64
  %23 = getelementptr inbounds [101 x [101 x i32]], [101 x [101 x i32]]* %7, i64 0, i64 %22
  %24 = load i32, i32* %4, align 4
  %25 = sext i32 %24 to i64
  %26 = getelementptr inbounds [101 x i32], [101 x i32]* %23, i64 0, i64 %25
  %27 = call i32 (i8*, ...) @__isoc99_scanf(i8* getelementptr inbounds ([3 x i8], [3 x i8]* @.str.1, i64 0, i64 0), i32* %26)
  br label %28

28:                                               ; preds = %20
  %29 = load i32, i32* %4, align 4
  %30 = add nsw i32 %29, 1
  store i32 %30, i32* %4, align 4
  br label %16

31:                                               ; preds = %16
  br label %32

32:                                               ; preds = %31
  %33 = load i32, i32* %3, align 4
  %34 = add nsw i32 %33, 1
  store i32 %34, i32* %3, align 4
  br label %11

35:                                               ; preds = %11
  %36 = load i32, i32* %2, align 4
  %37 = sext i32 %36 to i64
  %38 = mul i64 4, %37
  %39 = load i32, i32* %1, align 4
  %40 = sext i32 %39 to i64
  %41 = mul i64 %38, %40
  %42 = call noalias i8* @malloc(i64 %41) #4
  %43 = bitcast i8* %42 to i32*
  store i32* %43, i32** %8, align 8
  store i32 0, i32* %3, align 4
  br label %44

44:                                               ; preds = %79, %35
  %45 = load i32, i32* %3, align 4
  %46 = load i32, i32* %1, align 4
  %47 = icmp slt i32 %45, %46
  br i1 %47, label %48, label %82

48:                                               ; preds = %44
  store i32 0, i32* %5, align 4
  %49 = load i32, i32* %3, align 4
  store i32 %49, i32* %4, align 4
  br label %50

50:                                               ; preds = %73, %48
  %51 = load i32, i32* %4, align 4
  %52 = icmp sge i32 %51, 0
  br i1 %52, label %53, label %57

53:                                               ; preds = %50
  %54 = load i32, i32* %5, align 4
  %55 = load i32, i32* %2, align 4
  %56 = icmp slt i32 %54, %55
  br label %57

57:                                               ; preds = %53, %50
  %58 = phi i1 [ false, %50 ], [ %56, %53 ]
  br i1 %58, label %59, label %78

59:                                               ; preds = %57
  %60 = load i32, i32* %5, align 4
  %61 = sext i32 %60 to i64
  %62 = getelementptr inbounds [101 x [101 x i32]], [101 x [101 x i32]]* %7, i64 0, i64 %61
  %63 = load i32, i32* %4, align 4
  %64 = sext i32 %63 to i64
  %65 = getelementptr inbounds [101 x i32], [101 x i32]* %62, i64 0, i64 %64
  %66 = load i32, i32* %65, align 4
  %67 = load i32*, i32** %8, align 8
  %68 = load i32, i32* %6, align 4
  %69 = sext i32 %68 to i64
  %70 = getelementptr inbounds i32, i32* %67, i64 %69
  store i32 %66, i32* %70, align 4
  %71 = load i32, i32* %6, align 4
  %72 = add nsw i32 %71, 1
  store i32 %72, i32* %6, align 4
  br label %73

73:                                               ; preds = %59
  %74 = load i32, i32* %5, align 4
  %75 = add nsw i32 %74, 1
  store i32 %75, i32* %5, align 4
  %76 = load i32, i32* %4, align 4
  %77 = add nsw i32 %76, -1
  store i32 %77, i32* %4, align 4
  br label %50

78:                                               ; preds = %57
  br label %79

79:                                               ; preds = %78
  %80 = load i32, i32* %3, align 4
  %81 = add nsw i32 %80, 1
  store i32 %81, i32* %3, align 4
  br label %44

82:                                               ; preds = %44
  store i32 1, i32* %3, align 4
  br label %83

83:                                               ; preds = %120, %82
  %84 = load i32, i32* %3, align 4
  %85 = load i32, i32* %2, align 4
  %86 = icmp slt i32 %84, %85
  br i1 %86, label %87, label %123

87:                                               ; preds = %83
  %88 = load i32, i32* %3, align 4
  store i32 %88, i32* %5, align 4
  %89 = load i32, i32* %1, align 4
  %90 = sub nsw i32 %89, 1
  store i32 %90, i32* %4, align 4
  br label %91

91:                                               ; preds = %114, %87
  %92 = load i32, i32* %5, align 4
  %93 = load i32, i32* %2, align 4
  %94 = icmp slt i32 %92, %93
  br i1 %94, label %95, label %98

95:                                               ; preds = %91
  %96 = load i32, i32* %4, align 4
  %97 = icmp sge i32 %96, 0
  br label %98

98:                                               ; preds = %95, %91
  %99 = phi i1 [ false, %91 ], [ %97, %95 ]
  br i1 %99, label %100, label %119

100:                                              ; preds = %98
  %101 = load i32, i32* %5, align 4
  %102 = sext i32 %101 to i64
  %103 = getelementptr inbounds [101 x [101 x i32]], [101 x [101 x i32]]* %7, i64 0, i64 %102
  %104 = load i32, i32* %4, align 4
  %105 = sext i32 %104 to i64
  %106 = getelementptr inbounds [101 x i32], [101 x i32]* %103, i64 0, i64 %105
  %107 = load i32, i32* %106, align 4
  %108 = load i32*, i32** %8, align 8
  %109 = load i32, i32* %6, align 4
  %110 = sext i32 %109 to i64
  %111 = getelementptr inbounds i32, i32* %108, i64 %110
  store i32 %107, i32* %111, align 4
  %112 = load i32, i32* %6, align 4
  %113 = add nsw i32 %112, 1
  store i32 %113, i32* %6, align 4
  br label %114

114:                                              ; preds = %100
  %115 = load i32, i32* %4, align 4
  %116 = add nsw i32 %115, -1
  store i32 %116, i32* %4, align 4
  %117 = load i32, i32* %5, align 4
  %118 = add nsw i32 %117, 1
  store i32 %118, i32* %5, align 4
  br label %91

119:                                              ; preds = %98
  br label %120

120:                                              ; preds = %119
  %121 = load i32, i32* %3, align 4
  %122 = add nsw i32 %121, 1
  store i32 %122, i32* %3, align 4
  br label %83

123:                                              ; preds = %83
  store i32 0, i32* %3, align 4
  br label %124

124:                                              ; preds = %137, %123
  %125 = load i32, i32* %3, align 4
  %126 = load i32, i32* %2, align 4
  %127 = load i32, i32* %1, align 4
  %128 = mul nsw i32 %126, %127
  %129 = icmp slt i32 %125, %128
  br i1 %129, label %130, label %140

130:                                              ; preds = %124
  %131 = load i32*, i32** %8, align 8
  %132 = load i32, i32* %3, align 4
  %133 = sext i32 %132 to i64
  %134 = getelementptr inbounds i32, i32* %131, i64 %133
  %135 = load i32, i32* %134, align 4
  %136 = call i32 (i8*, ...) @printf(i8* getelementptr inbounds ([4 x i8], [4 x i8]* @.str.2, i64 0, i64 0), i32 %135)
  br label %137

137:                                              ; preds = %130
  %138 = load i32, i32* %3, align 4
  %139 = add nsw i32 %138, 1
  store i32 %139, i32* %3, align 4
  br label %124

140:                                              ; preds = %124
  ret void
}

; Function Attrs: argmemonly nounwind willreturn
declare void @llvm.memset.p0i8.i64(i8* nocapture writeonly, i8, i64, i1 immarg) #1

declare dso_local i32 @__isoc99_scanf(i8*, ...) #2

; Function Attrs: nounwind
declare dso_local noalias i8* @malloc(i64) #3

declare dso_local i32 @printf(i8*, ...) #2


!llvm.module.flags = !{!0}
!llvm.ident = !{!1}

!0 = !{i32 1, !"wchar_size", i32 4}
!1 = !{!"clang version 10.0.0-4ubuntu1 "}
